target datalayout = "e-m:e-p270:32:32-p271:32:32-p272:64:64-i64:64-i128:128-f80:128-n8:16:32:64-S128"
target triple = "x86_64-pc-linux-gnu"

%struct.buf_t = type { i32, ptr, i32, i32, i8, i8 }

@.str.1 = private unnamed_addr constant [7 x i8] c"pack.c\00", align 1
@.str.8 = private unnamed_addr constant [42 x i8] c"%s: Buffer size limit exceeded (%lu > %u)\00", align 1
@__func__.try_grow_buf = private unnamed_addr constant [13 x i8] c"try_grow_buf\00", align 1

; Function Attrs: nounwind uwtable
define dso_local i32 @try_grow_buf(ptr noundef %0, i32 noundef %1) #0 {
  %3 = alloca i32, align 4
  %4 = alloca ptr, align 8
  %5 = alloca i32, align 4
  %6 = alloca i64, align 8
  %7 = alloca i32, align 4
  store ptr %0, ptr %4, align 8
  store i32 %1, ptr %5, align 4
  call void @llvm.lifetime.start.p0(i64 8, ptr %6) #9
  %8 = load ptr, ptr %4, align 8
  %9 = getelementptr inbounds nuw %struct.buf_t, ptr %8, i32 0, i32 2
  %10 = load i32, ptr %9, align 8
  %11 = add i32 %10, 16384
  %12 = zext i32 %11 to i64
  store i64 %12, ptr %6, align 8
  %13 = load i32, ptr %5, align 4
  %14 = icmp uge i32 %13, 16384
  br i1 %14, label %15, label %20

15:                                               ; preds = %2
  %16 = load i32, ptr %5, align 4
  %17 = zext i32 %16 to i64
  %18 = load i64, ptr %6, align 8
  %19 = add i64 %18, %17
  store i64 %19, ptr %6, align 8
  br label %20

20:                                               ; preds = %15, %2
  %21 = load ptr, ptr %4, align 8
  %22 = getelementptr inbounds nuw %struct.buf_t, ptr %21, i32 0, i32 4
  %23 = load i8, ptr %22, align 8, !range !8, !noundef !9
  %24 = trunc i8 %23 to i1
  br i1 %24, label %30, label %25

25:                                               ; preds = %20
  %26 = load ptr, ptr %4, align 8
  %27 = getelementptr inbounds nuw %struct.buf_t, ptr %26, i32 0, i32 5
  %28 = load i8, ptr %27, align 1, !range !8, !noundef !9
  %29 = trunc i8 %28 to i1
  br i1 %29, label %30, label %31

30:                                               ; preds = %25, %20
  store i32 22, ptr %3, align 4
  store i32 1, ptr %7, align 4
  br label %49

31:                                               ; preds = %25
  %32 = load i64, ptr %6, align 8
  %33 = icmp ugt i64 %32, 4294901760
  br i1 %33, label %34, label %37

34:                                               ; preds = %31
  %35 = load i64, ptr %6, align 8
  %36 = call i32 (ptr, ...) @error(ptr noundef @.str.8, ptr noundef @__func__.try_grow_buf, i64 noundef %35, i32 noundef -65536)
  store i32 9205, ptr %3, align 4
  store i32 1, ptr %7, align 4
  br label %49

37:                                               ; preds = %31
  %38 = load ptr, ptr %4, align 8
  %39 = getelementptr inbounds nuw %struct.buf_t, ptr %38, i32 0, i32 1
  %40 = load i64, ptr %6, align 8
  %41 = call ptr @slurm_xrecalloc(ptr noundef %39, i64 noundef 1, i64 noundef %40, i1 noundef zeroext true, i1 noundef zeroext true, ptr noundef @.str.1, i32 noundef 238, ptr noundef @__func__.try_grow_buf)
  %42 = icmp ne ptr %41, null
  br i1 %42, label %44, label %43

43:                                               ; preds = %37
  store i32 12, ptr %3, align 4
  store i32 1, ptr %7, align 4
  br label %49

44:                                               ; preds = %37
  %45 = load i64, ptr %6, align 8
  %46 = trunc i64 %45 to i32
  %47 = load ptr, ptr %4, align 8
  %48 = getelementptr inbounds nuw %struct.buf_t, ptr %47, i32 0, i32 2
  store i32 %46, ptr %48, align 8
  store i32 0, ptr %3, align 4
  store i32 1, ptr %7, align 4
  br label %49

49:                                               ; preds = %44, %43, %34, %30
  call void @llvm.lifetime.end.p0(i64 8, ptr %6) #9
  %50 = load i32, ptr %3, align 4
  ret i32 %50
}

; Function Attrs: nounwind uwtable
define dso_local i32 @try_grow_buf_remaining(ptr noundef %0, i32 noundef %1) #0 {
  %3 = alloca i32, align 4
  %4 = alloca ptr, align 8
  %5 = alloca i32, align 4
  store ptr %0, ptr %4, align 8
  store i32 %1, ptr %5, align 4
  %6 = load ptr, ptr %4, align 8
  %7 = getelementptr inbounds nuw %struct.buf_t, ptr %6, i32 0, i32 2
  %8 = load i32, ptr %7, align 8
  %9 = load ptr, ptr %4, align 8
  %10 = getelementptr inbounds nuw %struct.buf_t, ptr %9, i32 0, i32 3
  %11 = load i32, ptr %10, align 4
  %12 = sub i32 %8, %11
  %13 = load i32, ptr %5, align 4
  %14 = icmp ult i32 %12, %13
  br i1 %14, label %15, label %19

15:                                               ; preds = %2
  %16 = load ptr, ptr %4, align 8
  %17 = load i32, ptr %5, align 4
  %18 = call i32 @try_grow_buf(ptr noundef %16, i32 noundef %17)
  store i32 %18, ptr %3, align 4
  br label %20

19:                                               ; preds = %2
  store i32 0, ptr %3, align 4
  br label %20

20:                                               ; preds = %19, %15
  %21 = load i32, ptr %3, align 4
  ret i32 %21
}

; Function Attrs: nounwind uwtable
define dso_local void @pack8(i8 noundef zeroext %0, ptr noundef %1) #0 {
  %3 = alloca i8, align 1
  %4 = alloca ptr, align 8
  store i8 %0, ptr %3, align 1
  store ptr %1, ptr %4, align 8
  %5 = load ptr, ptr %4, align 8
  %6 = call i32 @try_grow_buf_remaining(ptr noundef %5, i32 noundef 1)
  %7 = icmp ne i32 %6, 0
  br i1 %7, label %8, label %9

8:                                                ; preds = %2
  br label %24

9:                                                ; preds = %2
  %10 = load ptr, ptr %4, align 8
  %11 = getelementptr inbounds nuw %struct.buf_t, ptr %10, i32 0, i32 1
  %12 = load ptr, ptr %11, align 8
  %13 = load ptr, ptr %4, align 8
  %14 = getelementptr inbounds nuw %struct.buf_t, ptr %13, i32 0, i32 3
  %15 = load i32, ptr %14, align 4
  %16 = zext i32 %15 to i64
  %17 = getelementptr inbounds nuw i8, ptr %12, i64 %16
  call void @llvm.memcpy.p0.p0.i64(ptr align 1 %17, ptr align 1 %3, i64 1, i1 false)
  %18 = load ptr, ptr %4, align 8
  %19 = getelementptr inbounds nuw %struct.buf_t, ptr %18, i32 0, i32 3
  %20 = load i32, ptr %19, align 4
  %21 = zext i32 %20 to i64
  %22 = add i64 %21, 1
  %23 = trunc i64 %22 to i32
  store i32 %23, ptr %19, align 4
  br label %24

24:                                               ; preds = %9, %8
  ret void
}