; Function Attrs: nounwind uwtable
define dso_local void @pack8(i8 noundef zeroext %0, ptr noundef %1) #0 {
  %3 = getelementptr inbounds nuw i8, ptr %1, i64 16
  %4 = load i32, ptr %3, align 8
  %5 = getelementptr inbounds nuw i8, ptr %1, i64 20
  %6 = load i32, ptr %5, align 4
  %7 = icmp eq i32 %4, %6
  br i1 %7, label %8, label %try_grow_buf_remaining.exit

8:                                                ; preds = %2
  %9 = add i32 %4, 16384
  %10 = zext i32 %9 to i64
  %11 = getelementptr inbounds nuw i8, ptr %1, i64 24
  %12 = load i8, ptr %11, align 8, !range !8, !noundef !9
  %13 = trunc nuw i8 %12 to i1
  br i1 %13, label %try_grow_buf_remaining.exit.thread, label %14

14:                                               ; preds = %8
  %15 = getelementptr inbounds nuw i8, ptr %1, i64 25
  %16 = load i8, ptr %15, align 1, !range !8, !noundef !9
  %17 = trunc nuw i8 %16 to i1
  br i1 %17, label %try_grow_buf_remaining.exit.thread, label %18

18:                                               ; preds = %14
  %19 = icmp ugt i32 %9, -65536
  br i1 %19, label %20, label %22

20:                                               ; preds = %18
  %21 = tail call i32 (ptr, ...) @error(ptr noundef nonnull @.str.8, ptr noundef nonnull @__func__.try_grow_buf, i64 noundef %10, i32 noundef -65536) #14
  br label %try_grow_buf_remaining.exit.thread

22:                                               ; preds = %18
  %23 = getelementptr inbounds nuw i8, ptr %1, i64 8
  %24 = tail call ptr @slurm_xrecalloc(ptr noundef nonnull %23, i64 noundef 1, i64 noundef %10, i1 noundef zeroext true, i1 noundef zeroext true, ptr noundef nonnull @.str.1, i32 noundef 238, ptr noundef nonnull @__func__.try_grow_buf) #14
  %.not.i.i = icmp eq ptr %24, null
  br i1 %.not.i.i, label %try_grow_buf_remaining.exit.thread, label %25

25:                                               ; preds = %22
  store i32 %9, ptr %3, align 8
  %.pre = load i32, ptr %5, align 4
  br label %try_grow_buf_remaining.exit

try_grow_buf_remaining.exit:                      ; preds = %25, %2
  %26 = phi i32 [ %.pre, %25 ], [ %6, %2 ]
  %27 = getelementptr inbounds nuw i8, ptr %1, i64 8
  %28 = load ptr, ptr %27, align 8
  %29 = zext i32 %26 to i64
  %30 = getelementptr inbounds nuw i8, ptr %28, i64 %29
  store i8 %0, ptr %30, align 1
  %31 = load i32, ptr %5, align 4
  %32 = add i32 %31, 1
  store i32 %32, ptr %5, align 4
  br label %try_grow_buf_remaining.exit.thread

try_grow_buf_remaining.exit.thread:               ; preds = %22, %8, %14, %20, %try_grow_buf_remaining.exit
  ret void
}